target datalayout = "e-m:e-p270:32:32-p271:32:32-p272:64:64-i64:64-i128:128-f80:128-n8:16:32:64-S128"
target triple = "x86_64-pc-linux-gnu"

%struct.xcgroup_t = type { ptr, ptr, ptr, i32, i32, i32 }

@.str.34 = private unnamed_addr constant [36 x i8] c"error from open of cgroup '%s' : %m\00", align 1
@.str.35 = private unnamed_addr constant [31 x i8] c"error locking cgroup '%s' : %m\00", align 1

; Function Attrs: nounwind uwtable
define dso_local i32 @common_cgroup_lock(ptr noundef %0) #0 {
  %2 = alloca i32, align 4
  %3 = alloca ptr, align 8
  %4 = alloca i32, align 4
  %5 = alloca i32, align 4
  store ptr %0, ptr %3, align 8
  call void @llvm.lifetime.start.p0(i64 4, ptr %4) #6
  store i32 -1, ptr %4, align 4
  %6 = load ptr, ptr %3, align 8
  %7 = getelementptr inbounds nuw %struct.xcgroup_t, ptr %6, i32 0, i32 2
  %8 = load ptr, ptr %7, align 8
  %9 = icmp eq ptr %8, null
  br i1 %9, label %10, label %12

10:                                               ; preds = %1
  %11 = load i32, ptr %4, align 4
  store i32 %11, ptr %2, align 4
  store i32 1, ptr %5, align 4
  br label %44

12:                                               ; preds = %1
  %13 = load ptr, ptr %3, align 8
  %14 = getelementptr inbounds nuw %struct.xcgroup_t, ptr %13, i32 0, i32 2
  %15 = load ptr, ptr %14, align 8
  %16 = call i32 (ptr, i32, ...) @open(ptr noundef %15, i32 noundef 0)
  %17 = load ptr, ptr %3, align 8
  %18 = getelementptr inbounds nuw %struct.xcgroup_t, ptr %17, i32 0, i32 5
  store i32 %16, ptr %18, align 8
  %19 = icmp slt i32 %16, 0
  br i1 %19, label %20, label %26

20:                                               ; preds = %12
  %21 = load ptr, ptr %3, align 8
  %22 = getelementptr inbounds nuw %struct.xcgroup_t, ptr %21, i32 0, i32 2
  %23 = load ptr, ptr %22, align 8
  %24 = call i32 (ptr, ...) @error(ptr noundef @.str.34, ptr noundef %23)
  %25 = load i32, ptr %4, align 4
  store i32 %25, ptr %2, align 4
  store i32 1, ptr %5, align 4
  br label %44

26:                                               ; preds = %12
  %27 = load ptr, ptr %3, align 8
  %28 = getelementptr inbounds nuw %struct.xcgroup_t, ptr %27, i32 0, i32 5
  %29 = load i32, ptr %28, align 8
  %30 = call i32 @flock(i32 noundef %29, i32 noundef 2) #6
  %31 = icmp slt i32 %30, 0
  br i1 %31, label %32, label %41

32:                                               ; preds = %26
  %33 = load ptr, ptr %3, align 8
  %34 = getelementptr inbounds nuw %struct.xcgroup_t, ptr %33, i32 0, i32 2
  %35 = load ptr, ptr %34, align 8
  %36 = call i32 (ptr, ...) @error(ptr noundef @.str.35, ptr noundef %35)
  %37 = load ptr, ptr %3, align 8
  %38 = getelementptr inbounds nuw %struct.xcgroup_t, ptr %37, i32 0, i32 5
  %39 = load i32, ptr %38, align 8
  %40 = call i32 @close(i32 noundef %39)
  br label %42

41:                                               ; preds = %26
  store i32 0, ptr %4, align 4
  br label %42

42:                                               ; preds = %41, %32
  %43 = load i32, ptr %4, align 4
  store i32 %43, ptr %2, align 4
  store i32 1, ptr %5, align 4
  br label %44

44:                                               ; preds = %42, %20, %10
  call void @llvm.lifetime.end.p0(i64 4, ptr %4) #6
  %45 = load i32, ptr %2, align 4
  ret i32 %45
}