; Function Attrs: nounwind uwtable
define dso_local range(i32 -1, 1) i32 @common_cgroup_lock(ptr noundef captures(none) %0) local_unnamed_addr #0 {
  %2 = getelementptr inbounds nuw i8, ptr %0, i64 16
  %3 = load ptr, ptr %2, align 8
  %4 = icmp eq ptr %3, null
  br i1 %4, label %20, label %5

5:                                                ; preds = %1
  %6 = tail call i32 (ptr, i32, ...) @open(ptr noundef nonnull %3, i32 noundef 0) #8
  %7 = getelementptr inbounds nuw i8, ptr %0, i64 32
  store i32 %6, ptr %7, align 8
  %8 = icmp slt i32 %6, 0
  br i1 %8, label %9, label %12

9:                                                ; preds = %5
  %10 = load ptr, ptr %2, align 8
  %11 = tail call i32 (ptr, ...) @error(ptr noundef nonnull @.str.34, ptr noundef %10) #8
  br label %20

12:                                               ; preds = %5
  %13 = tail call i32 @flock(i32 noundef %6, i32 noundef 2) #8
  %14 = icmp slt i32 %13, 0
  br i1 %14, label %15, label %20

15:                                               ; preds = %12
  %16 = load ptr, ptr %2, align 8
  %17 = tail call i32 (ptr, ...) @error(ptr noundef nonnull @.str.35, ptr noundef %16) #8
  %18 = load i32, ptr %7, align 8
  %19 = tail call i32 @close(i32 noundef %18) #8
  br label %20

20:                                               ; preds = %15, %12, %1, %9
  %.010 = phi i32 [ -1, %9 ], [ -1, %1 ], [ -1, %15 ], [ 0, %12 ]
  ret i32 %.010
}